; Function Attrs: mustprogress nounwind willreturn uwtable
define void @h5tools_str_close(ptr noundef captures(address_is_null) %0) local_unnamed_addr #0 {
  %.not = icmp eq ptr %0, null
  br i1 %.not, label %7, label %2

2:                                                ; preds = %1
  %3 = getelementptr inbounds nuw i8, ptr %0, i64 16
  %4 = load i64, ptr %3, align 8, !tbaa !3
  %.not4 = icmp eq i64 %4, 0
  br i1 %.not4, label %7, label %5

5:                                                ; preds = %2
  %6 = load ptr, ptr %0, align 8, !tbaa !10
  tail call void @free(ptr noundef %6) #21
  tail call void @llvm.memset.p0.i64(ptr noundef nonnull align 8 dereferenceable(24) %0, i8 0, i64 24, i1 false)
  br label %7

7:                                                ; preds = %5, %2, %1
  ret void
}